target datalayout = "e-m:e-p270:32:32-p271:32:32-p272:64:64-i64:64-i128:128-f80:128-n8:16:32:64-S128"
target triple = "x86_64-pc-linux-gnu"

%struct.typenode = type { i16, i64, ptr, ptr, ptr, ptr, ptr, ptr, ptr, ptr, ptr }
%struct.fieldnode = type { i16, i16, i16, i16, i16, i32, i32, i32, i32, i16, i16, i16, i16, i32, i32, i32, i32, ptr, ptr, ptr, ptr, ptr, ptr, ptr, ptr }

; Function Attrs: nounwind uwtable
define dso_local zeroext i1 @_nc_Copy_Type(ptr noundef %0, ptr noundef %1) #0 {
  %3 = alloca i1, align 1
  %4 = alloca ptr, align 8
  %5 = alloca ptr, align 8
  %6 = alloca i32, align 4
  %7 = alloca i32, align 4
  store ptr %0, ptr %4, align 8, !tbaa !29
  store ptr %1, ptr %5, align 8, !tbaa !29
  call void @llvm.lifetime.start.p0(i64 4, ptr %6) #7
  store i32 0, ptr %6, align 4, !tbaa !24
  %8 = load ptr, ptr %5, align 8, !tbaa !29
  %9 = getelementptr inbounds nuw %struct.fieldnode, ptr %8, i32 0, i32 21
  %10 = load ptr, ptr %9, align 8, !tbaa !31
  %11 = load ptr, ptr %4, align 8, !tbaa !29
  %12 = getelementptr inbounds nuw %struct.fieldnode, ptr %11, i32 0, i32 21
  store ptr %10, ptr %12, align 8, !tbaa !31
  %13 = load ptr, ptr %5, align 8, !tbaa !29
  %14 = getelementptr inbounds nuw %struct.fieldnode, ptr %13, i32 0, i32 21
  %15 = load ptr, ptr %14, align 8, !tbaa !31
  %16 = load ptr, ptr %5, align 8, !tbaa !29
  %17 = getelementptr inbounds nuw %struct.fieldnode, ptr %16, i32 0, i32 22
  %18 = load ptr, ptr %17, align 8, !tbaa !35
  %19 = call ptr @_nc_Copy_Argument(ptr noundef %15, ptr noundef %18, ptr noundef %6)
  %20 = load ptr, ptr %4, align 8, !tbaa !29
  %21 = getelementptr inbounds nuw %struct.fieldnode, ptr %20, i32 0, i32 22
  store ptr %19, ptr %21, align 8, !tbaa !35
  %22 = load i32, ptr %6, align 4, !tbaa !24
  %23 = icmp ne i32 %22, 0
  br i1 %23, label %24, label %35

24:                                               ; preds = %2
  %25 = load ptr, ptr %4, align 8, !tbaa !29
  %26 = getelementptr inbounds nuw %struct.fieldnode, ptr %25, i32 0, i32 21
  %27 = load ptr, ptr %26, align 8, !tbaa !31
  %28 = load ptr, ptr %4, align 8, !tbaa !29
  %29 = getelementptr inbounds nuw %struct.fieldnode, ptr %28, i32 0, i32 22
  %30 = load ptr, ptr %29, align 8, !tbaa !35
  call void @_nc_Free_Argument(ptr noundef %27, ptr noundef %30)
  %31 = load ptr, ptr %4, align 8, !tbaa !29
  %32 = getelementptr inbounds nuw %struct.fieldnode, ptr %31, i32 0, i32 21
  store ptr null, ptr %32, align 8, !tbaa !31
  %33 = load ptr, ptr %4, align 8, !tbaa !29
  %34 = getelementptr inbounds nuw %struct.fieldnode, ptr %33, i32 0, i32 22
  store ptr null, ptr %34, align 8, !tbaa !35
  store i1 false, ptr %3, align 1
  store i32 1, ptr %7, align 4
  br label %48

35:                                               ; preds = %2
  %36 = load ptr, ptr %4, align 8, !tbaa !29
  %37 = getelementptr inbounds nuw %struct.fieldnode, ptr %36, i32 0, i32 21
  %38 = load ptr, ptr %37, align 8, !tbaa !31
  %39 = icmp ne ptr %38, null
  br i1 %39, label %40, label %47

40:                                               ; preds = %35
  %41 = load ptr, ptr %4, align 8, !tbaa !29
  %42 = getelementptr inbounds nuw %struct.fieldnode, ptr %41, i32 0, i32 21
  %43 = load ptr, ptr %42, align 8, !tbaa !31
  %44 = getelementptr inbounds nuw %struct.typenode, ptr %43, i32 0, i32 1
  %45 = load i64, ptr %44, align 8, !tbaa !36
  %46 = add nsw i64 %45, 1
  store i64 %46, ptr %44, align 8, !tbaa !36
  br label %47

47:                                               ; preds = %40, %35
  store i1 true, ptr %3, align 1
  store i32 1, ptr %7, align 4
  br label %48

48:                                               ; preds = %47, %24
  call void @llvm.lifetime.end.p0(i64 4, ptr %6) #7
  %49 = load i1, ptr %3, align 1
  ret i1 %49
}