; Function Attrs: nounwind uwtable
define dso_local noundef zeroext i1 @_nc_Copy_Type(ptr noundef captures(none) initializes((88, 104)) %0, ptr noundef readonly captures(none) %1) local_unnamed_addr #0 {
  %3 = alloca i32, align 4
  call void @llvm.lifetime.start.p0(i64 4, ptr nonnull %3) #8
  store i32 0, ptr %3, align 4, !tbaa !18
  %4 = getelementptr inbounds nuw i8, ptr %1, i64 88
  %5 = load ptr, ptr %4, align 8, !tbaa !23
  %6 = getelementptr inbounds nuw i8, ptr %0, i64 88
  store ptr %5, ptr %6, align 8, !tbaa !23
  %7 = getelementptr inbounds nuw i8, ptr %1, i64 96
  %8 = load ptr, ptr %7, align 8, !tbaa !28
  %9 = call ptr @_nc_Copy_Argument(ptr noundef %5, ptr noundef %8, ptr noundef nonnull %3)
  %10 = getelementptr inbounds nuw i8, ptr %0, i64 96
  store ptr %9, ptr %10, align 8, !tbaa !28
  %11 = load i32, ptr %3, align 4, !tbaa !18
  %.not = icmp eq i32 %11, 0
  %12 = load ptr, ptr %6, align 8, !tbaa !23
  br i1 %.not, label %14, label %13

13:                                               ; preds = %2
  call void @_nc_Free_Argument(ptr noundef %12, ptr noundef %9)
  call void @llvm.memset.p0.i64(ptr noundef nonnull align 8 dereferenceable(16) %6, i8 0, i64 16, i1 false)
  br label %19

14:                                               ; preds = %2
  %.not13 = icmp eq ptr %12, null
  br i1 %.not13, label %19, label %15

15:                                               ; preds = %14
  %16 = getelementptr inbounds nuw i8, ptr %12, i64 8
  %17 = load i64, ptr %16, align 8, !tbaa !29
  %18 = add nsw i64 %17, 1
  store i64 %18, ptr %16, align 8, !tbaa !29
  br label %19

19:                                               ; preds = %14, %15, %13
  call void @llvm.lifetime.end.p0(i64 4, ptr nonnull %3) #8
  ret i1 %.not
}